; Function Attrs: mustprogress uwtable
define internal fastcc noundef zeroext i1 @_ZL14input_is_validPKhm(ptr noundef readonly captures(none) %0, i64 noundef %1) unnamed_addr #3 personality ptr @__gxx_personality_v0 {
  %3 = alloca i8, align 1
  %4 = alloca %"class.absl::lts_20240722::log_internal::LogMessage", align 8
  %5 = icmp eq i64 %1, 0
  br i1 %5, label %.loopexit, label %.lr.ph

6:                                                ; preds = %.lr.ph
  %7 = add nuw i64 %.0810, 1
  %exitcond.not = icmp eq i64 %7, %1
  br i1 %exitcond.not, label %.loopexit, label %.lr.ph, !llvm.loop !26

.lr.ph:                                           ; preds = %2, %6
  %.0810 = phi i64 [ %7, %6 ], [ 0, %2 ]
  %8 = getelementptr inbounds nuw i8, ptr %0, i64 %.0810
  %9 = load i8, ptr %8, align 1, !tbaa !9
  %10 = zext i8 %9 to i64
  %11 = getelementptr inbounds nuw [256 x i8], ptr @_ZL12decode_table, i64 0, i64 %10
  %12 = load i8, ptr %11, align 1, !tbaa !9
  %.not = icmp ult i8 %12, 64
  br i1 %.not, label %6, label %13, !prof !27

13:                                               ; preds = %.lr.ph
  call void @llvm.lifetime.start.p0(i64 16, ptr nonnull %4) #12
  call void @_ZN4absl12lts_2024072212log_internal10LogMessageC1EPKciNS2_8ErrorTagE(ptr noundef nonnull align 8 dereferenceable(16) %4, ptr noundef nonnull @.str, i32 noundef 60) #13
  invoke void @_ZN4absl12lts_2024072212log_internal10LogMessage19CopyToEncodedBufferILNS2_10StringTypeE0EEEvSt17basic_string_viewIcSt11char_traitsIcEE(ptr noundef nonnull align 8 dereferenceable(16) %4, i64 43, ptr nonnull @.str.16)
          to label %_ZN4absl12lts_2024072212log_internal10LogMessagelsILi44EEERS2_RAT__Kc.exit unwind label %17

_ZN4absl12lts_2024072212log_internal10LogMessagelsILi44EEERS2_RAT__Kc.exit: ; preds = %13
  %14 = load i8, ptr %0, align 1, !tbaa !9
  call void @llvm.lifetime.start.p0(i64 1, ptr nonnull %3)
  store i8 %14, ptr %3, align 1, !tbaa !9
  %15 = invoke noundef nonnull align 8 dereferenceable(16) ptr @_ZN4absl12lts_2024072212log_internal10LogMessagelsIcTnNSt9enable_ifIXntsr4absl16HasAbslStringifyIT_EE5valueEiE4typeELi0EEERS2_RKS5_(ptr noundef nonnull align 8 dereferenceable(16) %4, ptr noundef nonnull align 1 dereferenceable(1) %3)
          to label %16 unwind label %17

16:                                               ; preds = %_ZN4absl12lts_2024072212log_internal10LogMessagelsILi44EEERS2_RAT__Kc.exit
  call void @llvm.lifetime.end.p0(i64 1, ptr nonnull %3)
  invoke void @_ZN4absl12lts_2024072212log_internal10LogMessage19CopyToEncodedBufferILNS2_10StringTypeE0EEEvSt17basic_string_viewIcSt11char_traitsIcEE(ptr noundef nonnull align 8 dereferenceable(16) %15, i64 19, ptr nonnull @.str.17)
          to label %_ZN4absl12lts_2024072212log_internal10LogMessagelsILi20EEERS2_RAT__Kc.exit unwind label %17

_ZN4absl12lts_2024072212log_internal10LogMessagelsILi20EEERS2_RAT__Kc.exit: ; preds = %16
  call void @_ZN4absl12lts_2024072212log_internal10LogMessageD1Ev(ptr noundef nonnull align 8 dereferenceable(16) %4) #14
  call void @llvm.lifetime.end.p0(i64 16, ptr nonnull %4) #12
  br label %.loopexit

17:                                               ; preds = %16, %_ZN4absl12lts_2024072212log_internal10LogMessagelsILi44EEERS2_RAT__Kc.exit, %13
  %18 = landingpad { ptr, i32 }
          cleanup
  call void @_ZN4absl12lts_2024072212log_internal10LogMessageD1Ev(ptr noundef nonnull align 8 dereferenceable(16) %4) #14
  call void @llvm.lifetime.end.p0(i64 16, ptr nonnull %4) #12
  resume { ptr, i32 } %18

.loopexit:                                        ; preds = %6, %2, %_ZN4absl12lts_2024072212log_internal10LogMessagelsILi20EEERS2_RAT__Kc.exit
  %19 = phi i1 [ false, %_ZN4absl12lts_2024072212log_internal10LogMessagelsILi20EEERS2_RAT__Kc.exit ], [ true, %2 ], [ true, %6 ]
  ret i1 %19
}